target datalayout = "e-m:e-p270:32:32-p271:32:32-p272:64:64-i64:64-i128:128-f80:128-n8:16:32:64-S128"
target triple = "x86_64-pc-linux-gnu"

%struct.pairingheap_node = type { ptr, ptr, ptr }
%struct.pairingheap = type { ptr, ptr, ptr }

@RegisteredSnapshots = internal global %struct.pairingheap { ptr @xmin_cmp, ptr null, ptr null }, align 8

; Function Attrs: nounwind uwtable
define dso_local zeroext i1 @ThereAreNoPriorRegisteredSnapshots() #0 {
  %1 = alloca i1, align 1
  %2 = load ptr, ptr getelementptr inbounds nuw (%struct.pairingheap, ptr @RegisteredSnapshots, i32 0, i32 2), align 8
  %3 = icmp eq ptr %2, null
  br i1 %3, label %12, label %4

4:                                                ; preds = %0
  %5 = load ptr, ptr getelementptr inbounds nuw (%struct.pairingheap, ptr @RegisteredSnapshots, i32 0, i32 2), align 8
  %6 = icmp ne ptr %5, null
  br i1 %6, label %7, label %13

7:                                                ; preds = %4
  %8 = load ptr, ptr getelementptr inbounds nuw (%struct.pairingheap, ptr @RegisteredSnapshots, i32 0, i32 2), align 8
  %9 = getelementptr inbounds nuw %struct.pairingheap_node, ptr %8, i32 0, i32 0
  %10 = load ptr, ptr %9, align 8
  %11 = icmp eq ptr %10, null
  br i1 %11, label %12, label %13

12:                                               ; preds = %7, %0
  store i1 true, ptr %1, align 1
  br label %14

13:                                               ; preds = %7, %4
  store i1 false, ptr %1, align 1
  br label %14

14:                                               ; preds = %13, %12
  %15 = load i1, ptr %1, align 1
  ret i1 %15
}