; Function Attrs: mustprogress nofree norecurse nosync nounwind willreturn memory(read, inaccessiblemem: none) uwtable
define dso_local zeroext i1 @ThereAreNoPriorRegisteredSnapshots() local_unnamed_addr #6 {
  %1 = load ptr, ptr getelementptr inbounds nuw (i8, ptr @RegisteredSnapshots, i64 16), align 8
  %2 = icmp eq ptr %1, null
  br i1 %2, label %6, label %3

3:                                                ; preds = %0
  %4 = load ptr, ptr %1, align 8
  %5 = icmp eq ptr %4, null
  br label %6

6:                                                ; preds = %3, %0
  %.0 = phi i1 [ true, %0 ], [ %5, %3 ]
  ret i1 %.0
}